; Function Attrs: mustprogress nounwind uwtable
define hidden void @_ZN9JavaCalls11call_staticEP9JavaValueP5KlassP6SymbolS5_P10JavaThread(ptr noundef %0, ptr noundef %1, ptr noundef %2, ptr noundef %3, ptr noundef %4) local_unnamed_addr #0 align 2 {
  %6 = alloca %class.JavaCallArguments, align 8
  %7 = getelementptr inbounds i8, ptr %6, i64 120
  store ptr null, ptr %7, align 8
  %8 = getelementptr inbounds i8, ptr %6, i64 8
  %9 = getelementptr inbounds i8, ptr %6, i64 88
  store ptr %8, ptr %9, align 8
  %10 = getelementptr inbounds i8, ptr %6, i64 73
  %11 = getelementptr inbounds i8, ptr %6, i64 96
  store ptr %10, ptr %11, align 8
  %12 = getelementptr inbounds i8, ptr %6, i64 108
  store i32 8, ptr %12, align 4
  %13 = getelementptr inbounds i8, ptr %6, i64 104
  store i32 0, ptr %13, align 8
  %14 = getelementptr inbounds i8, ptr %6, i64 112
  store i8 0, ptr %14, align 8
  call void @_ZN9JavaCalls11call_staticEP9JavaValueP5KlassP6SymbolS5_P17JavaCallArgumentsP10JavaThread(ptr noundef %0, ptr noundef %1, ptr noundef %2, ptr noundef %3, ptr noundef nonnull %6, ptr noundef %4)
  ret void
}